; Function Attrs: mustprogress uwtable
define hidden void @_ZN4cvc58internal4expr14narySubstituteENS0_12NodeTemplateILb1EEERKSt6vectorIS3_SaIS3_EES8_(ptr dead_on_unwind noalias writable sret(%"class.cvc5::internal::NodeTemplate.6") align 8 %0, ptr noundef readonly captures(none) %1, ptr noundef nonnull readonly align 8 captures(none) dereferenceable(24) %2, ptr noundef nonnull readonly align 8 captures(none) dereferenceable(24) %3) local_unnamed_addr #3 personality ptr @__gxx_personality_v0 {
  %5 = alloca %"class.std::unordered_map", align 8
  %6 = alloca %"class.cvc5::internal::NodeTemplate.6", align 8
  call void @llvm.lifetime.start.p0(i64 56, ptr nonnull %5) #22
  %7 = getelementptr inbounds nuw i8, ptr %5, i64 48
  store ptr %7, ptr %5, align 8, !tbaa !139
  %8 = getelementptr inbounds nuw i8, ptr %5, i64 8
  store i64 1, ptr %8, align 8, !tbaa !141
  %9 = getelementptr inbounds nuw i8, ptr %5, i64 16
  %10 = getelementptr inbounds nuw i8, ptr %5, i64 32
  call void @llvm.memset.p0.i64(ptr noundef nonnull align 8 dereferenceable(16) %9, i8 0, i64 16, i1 false)
  store float 1.000000e+00, ptr %10, align 8, !tbaa !109
  %11 = getelementptr inbounds nuw i8, ptr %5, i64 40
  call void @llvm.memset.p0.i64(ptr noundef nonnull align 8 dereferenceable(16) %11, i8 0, i64 16, i1 false)
  %12 = load ptr, ptr %1, align 8, !tbaa !130
  store ptr %12, ptr %6, align 8, !tbaa !130
  %13 = load i64, ptr %12, align 8
  %14 = lshr i64 %13, 40
  %15 = trunc nuw nsw i64 %14 to i32
  %16 = and i32 %15, 1048575
  %17 = icmp samesign ult i32 %16, 1048574
  br i1 %17, label %18, label %23, !prof !132

18:                                               ; preds = %4
  %19 = add i64 %13, 1099511627776
  %20 = and i64 %19, 1152920405095219200
  %21 = and i64 %13, -1152920405095219201
  %22 = or disjoint i64 %20, %21
  store i64 %22, ptr %12, align 8
  br label %_ZN4cvc58internal12NodeTemplateILb1EEC2ERKS2_.exit

23:                                               ; preds = %4
  %24 = icmp eq i32 %16, 1048574
  br i1 %24, label %25, label %_ZN4cvc58internal12NodeTemplateILb1EEC2ERKS2_.exit, !prof !117

25:                                               ; preds = %23
  %26 = or i64 %13, 1152920405095219200
  store i64 %26, ptr %12, align 8
  invoke void @_ZN4cvc58internal4expr9NodeValue20markRefCountMaxedOutEv(ptr noundef nonnull align 8 dereferenceable(24) %12)
          to label %_ZN4cvc58internal12NodeTemplateILb1EEC2ERKS2_.exit unwind label %64

_ZN4cvc58internal12NodeTemplateILb1EEC2ERKS2_.exit: ; preds = %23, %18, %25
  invoke void @_ZN4cvc58internal4expr14narySubstituteENS0_12NodeTemplateILb1EEERKSt6vectorIS3_SaIS3_EES8_RSt13unordered_mapINS2_ILb0EEES3_St4hashISA_ESt8equal_toISA_ESaISt4pairIKSA_S3_EEE(ptr dead_on_unwind writable sret(%"class.cvc5::internal::NodeTemplate.6") align 8 %0, ptr noundef nonnull %6, ptr noundef nonnull align 8 dereferenceable(24) %2, ptr noundef nonnull align 8 dereferenceable(24) %3, ptr noundef nonnull align 8 dereferenceable(56) %5)
          to label %27 unwind label %66

27:                                               ; preds = %_ZN4cvc58internal12NodeTemplateILb1EEC2ERKS2_.exit
  %28 = load i64, ptr %12, align 8
  %29 = and i64 %28, 1152920405095219200
  %.not.i.i = icmp eq i64 %29, 1152920405095219200
  br i1 %.not.i.i, label %_ZN4cvc58internal12NodeTemplateILb1EED2Ev.exit, label %30, !prof !117

30:                                               ; preds = %27
  %31 = add i64 %28, 1152920405095219200
  %32 = and i64 %31, 1152920405095219200
  %33 = and i64 %28, -1152920405095219201
  %34 = or disjoint i64 %32, %33
  store i64 %34, ptr %12, align 8
  %35 = icmp eq i64 %32, 0
  br i1 %35, label %36, label %_ZN4cvc58internal12NodeTemplateILb1EED2Ev.exit, !prof !117

36:                                               ; preds = %30
  invoke void @_ZN4cvc58internal4expr9NodeValue15markForDeletionEv(ptr noundef nonnull align 8 dereferenceable(24) %12)
          to label %_ZN4cvc58internal12NodeTemplateILb1EED2Ev.exit unwind label %37

37:                                               ; preds = %36
  %38 = landingpad { ptr, i32 }
          catch ptr null
  %39 = extractvalue { ptr, i32 } %38, 0
  call void @__clang_call_terminate(ptr %39) #26
  unreachable

_ZN4cvc58internal12NodeTemplateILb1EED2Ev.exit:   ; preds = %27, %30, %36
  %40 = load ptr, ptr %9, align 8, !tbaa !142
  %.not5.i.i.i = icmp eq ptr %40, null
  br i1 %.not5.i.i.i, label %_ZNSt10_HashtableIN4cvc58internal12NodeTemplateILb0EEESt4pairIKS3_NS2_ILb1EEEESaIS7_ENSt8__detail10_Select1stESt8equal_toIS3_ESt4hashIS3_ENS9_18_Mod_range_hashingENS9_20_Default_ranged_hashENS9_20_Prime_rehash_policyENS9_17_Hashtable_traitsILb1ELb0ELb1EEEE5clearEv.exit.i, label %.lr.ph.i.i.i

.lr.ph.i.i.i:                                     ; preds = %_ZN4cvc58internal12NodeTemplateILb1EED2Ev.exit, %_ZNSt8__detail16_Hashtable_allocISaINS_10_Hash_nodeISt4pairIKN4cvc58internal12NodeTemplateILb0EEENS5_ILb1EEEELb1EEEEE18_M_deallocate_nodeEPSA_.exit.i.i.i
  %.06.i.i.i = phi ptr [ %41, %_ZNSt8__detail16_Hashtable_allocISaINS_10_Hash_nodeISt4pairIKN4cvc58internal12NodeTemplateILb0EEENS5_ILb1EEEELb1EEEEE18_M_deallocate_nodeEPSA_.exit.i.i.i ], [ %40, %_ZN4cvc58internal12NodeTemplateILb1EED2Ev.exit ]
  %41 = load ptr, ptr %.06.i.i.i, align 8, !tbaa !94
  %42 = getelementptr inbounds nuw i8, ptr %.06.i.i.i, i64 16
  %43 = load ptr, ptr %42, align 8, !tbaa !130
  %44 = load i64, ptr %43, align 8
  %45 = and i64 %44, 1152920405095219200
  %.not.i.i.i.i.i.i.i.i.i = icmp eq i64 %45, 1152920405095219200
  br i1 %.not.i.i.i.i.i.i.i.i.i, label %_ZNSt8__detail16_Hashtable_allocISaINS_10_Hash_nodeISt4pairIKN4cvc58internal12NodeTemplateILb0EEENS5_ILb1EEEELb1EEEEE18_M_deallocate_nodeEPSA_.exit.i.i.i, label %46, !prof !117

46:                                               ; preds = %.lr.ph.i.i.i
  %47 = add i64 %44, 1152920405095219200
  %48 = and i64 %47, 1152920405095219200
  %49 = and i64 %44, -1152920405095219201
  %50 = or disjoint i64 %48, %49
  store i64 %50, ptr %43, align 8
  %51 = icmp eq i64 %48, 0
  br i1 %51, label %52, label %_ZNSt8__detail16_Hashtable_allocISaINS_10_Hash_nodeISt4pairIKN4cvc58internal12NodeTemplateILb0EEENS5_ILb1EEEELb1EEEEE18_M_deallocate_nodeEPSA_.exit.i.i.i, !prof !117

52:                                               ; preds = %46
  invoke void @_ZN4cvc58internal4expr9NodeValue15markForDeletionEv(ptr noundef nonnull align 8 dereferenceable(24) %43)
          to label %_ZNSt8__detail16_Hashtable_allocISaINS_10_Hash_nodeISt4pairIKN4cvc58internal12NodeTemplateILb0EEENS5_ILb1EEEELb1EEEEE18_M_deallocate_nodeEPSA_.exit.i.i.i unwind label %53

53:                                               ; preds = %52
  %54 = landingpad { ptr, i32 }
          catch ptr null
  %55 = extractvalue { ptr, i32 } %54, 0
  call void @__clang_call_terminate(ptr %55) #26
  unreachable

_ZNSt8__detail16_Hashtable_allocISaINS_10_Hash_nodeISt4pairIKN4cvc58internal12NodeTemplateILb0EEENS5_ILb1EEEELb1EEEEE18_M_deallocate_nodeEPSA_.exit.i.i.i: ; preds = %52, %46, %.lr.ph.i.i.i
  call void @_ZdlPvm(ptr noundef nonnull %.06.i.i.i, i64 noundef 32) #25
  %.not.i.i.i = icmp eq ptr %41, null
  br i1 %.not.i.i.i, label %_ZNSt10_HashtableIN4cvc58internal12NodeTemplateILb0EEESt4pairIKS3_NS2_ILb1EEEESaIS7_ENSt8__detail10_Select1stESt8equal_toIS3_ESt4hashIS3_ENS9_18_Mod_range_hashingENS9_20_Default_ranged_hashENS9_20_Prime_rehash_policyENS9_17_Hashtable_traitsILb1ELb0ELb1EEEE5clearEv.exit.i, label %.lr.ph.i.i.i, !llvm.loop !143

_ZNSt10_HashtableIN4cvc58internal12NodeTemplateILb0EEESt4pairIKS3_NS2_ILb1EEEESaIS7_ENSt8__detail10_Select1stESt8equal_toIS3_ESt4hashIS3_ENS9_18_Mod_range_hashingENS9_20_Default_ranged_hashENS9_20_Prime_rehash_policyENS9_17_Hashtable_traitsILb1ELb0ELb1EEEE5clearEv.exit.i: ; preds = %_ZNSt8__detail16_Hashtable_allocISaINS_10_Hash_nodeISt4pairIKN4cvc58internal12NodeTemplateILb0EEENS5_ILb1EEEELb1EEEEE18_M_deallocate_nodeEPSA_.exit.i.i.i, %_ZN4cvc58internal12NodeTemplateILb1EED2Ev.exit
  %56 = load ptr, ptr %5, align 8, !tbaa !139
  %57 = load i64, ptr %8, align 8, !tbaa !141
  %58 = shl i64 %57, 3
  call void @llvm.memset.p0.i64(ptr align 8 %56, i8 0, i64 %58, i1 false)
  call void @llvm.memset.p0.i64(ptr noundef nonnull align 8 dereferenceable(16) %9, i8 0, i64 16, i1 false)
  %59 = load ptr, ptr %5, align 8, !tbaa !139
  %60 = icmp eq ptr %59, %7
  br i1 %60, label %_ZNSt10_HashtableIN4cvc58internal12NodeTemplateILb0EEESt4pairIKS3_NS2_ILb1EEEESaIS7_ENSt8__detail10_Select1stESt8equal_toIS3_ESt4hashIS3_ENS9_18_Mod_range_hashingENS9_20_Default_ranged_hashENS9_20_Prime_rehash_policyENS9_17_Hashtable_traitsILb1ELb0ELb1EEEED2Ev.exit, label %61

61:                                               ; preds = %_ZNSt10_HashtableIN4cvc58internal12NodeTemplateILb0EEESt4pairIKS3_NS2_ILb1EEEESaIS7_ENSt8__detail10_Select1stESt8equal_toIS3_ESt4hashIS3_ENS9_18_Mod_range_hashingENS9_20_Default_ranged_hashENS9_20_Prime_rehash_policyENS9_17_Hashtable_traitsILb1ELb0ELb1EEEE5clearEv.exit.i
  %62 = load i64, ptr %8, align 8, !tbaa !141
  %63 = shl i64 %62, 3
  call void @_ZdlPvm(ptr noundef %59, i64 noundef %63) #25
  br label %_ZNSt10_HashtableIN4cvc58internal12NodeTemplateILb0EEESt4pairIKS3_NS2_ILb1EEEESaIS7_ENSt8__detail10_Select1stESt8equal_toIS3_ESt4hashIS3_ENS9_18_Mod_range_hashingENS9_20_Default_ranged_hashENS9_20_Prime_rehash_policyENS9_17_Hashtable_traitsILb1ELb0ELb1EEEED2Ev.exit

_ZNSt10_HashtableIN4cvc58internal12NodeTemplateILb0EEESt4pairIKS3_NS2_ILb1EEEESaIS7_ENSt8__detail10_Select1stESt8equal_toIS3_ESt4hashIS3_ENS9_18_Mod_range_hashingENS9_20_Default_ranged_hashENS9_20_Prime_rehash_policyENS9_17_Hashtable_traitsILb1ELb0ELb1EEEED2Ev.exit: ; preds = %_ZNSt10_HashtableIN4cvc58internal12NodeTemplateILb0EEESt4pairIKS3_NS2_ILb1EEEESaIS7_ENSt8__detail10_Select1stESt8equal_toIS3_ESt4hashIS3_ENS9_18_Mod_range_hashingENS9_20_Default_ranged_hashENS9_20_Prime_rehash_policyENS9_17_Hashtable_traitsILb1ELb0ELb1EEEE5clearEv.exit.i, %61
  call void @llvm.lifetime.end.p0(i64 56, ptr nonnull %5) #22
  ret void

64:                                               ; preds = %25
  %65 = landingpad { ptr, i32 }
          cleanup
  br label %68

66:                                               ; preds = %_ZN4cvc58internal12NodeTemplateILb1EEC2ERKS2_.exit
  %67 = landingpad { ptr, i32 }
          cleanup
  call void @_ZN4cvc58internal12NodeTemplateILb1EED2Ev(ptr noundef nonnull align 8 dereferenceable(8) %6) #22
  br label %68

68:                                               ; preds = %66, %64
  %.pn = phi { ptr, i32 } [ %67, %66 ], [ %65, %64 ]
  call void @_ZNSt10_HashtableIN4cvc58internal12NodeTemplateILb0EEESt4pairIKS3_NS2_ILb1EEEESaIS7_ENSt8__detail10_Select1stESt8equal_toIS3_ESt4hashIS3_ENS9_18_Mod_range_hashingENS9_20_Default_ranged_hashENS9_20_Prime_rehash_policyENS9_17_Hashtable_traitsILb1ELb0ELb1EEEED2Ev(ptr noundef nonnull align 8 dereferenceable(56) %5) #22
  call void @llvm.lifetime.end.p0(i64 56, ptr nonnull %5) #22
  resume { ptr, i32 } %.pn
}